target datalayout = "e-m:e-p270:32:32-p271:32:32-p272:64:64-i64:64-i128:128-f80:128-n8:16:32:64-S128"
target triple = "x86_64-pc-linux-gnu"

%struct._Node = type { %union.anon.35 }
%union.anon.35 = type { %struct.BagNode }
%struct.BagNode = type { i32, i32, ptr, ptr, i32, %union.anon.37, i32, i32, i32, i32, i32 }
%union.anon.37 = type { %struct.anon.40 }
%struct.anon.40 = type { ptr, ptr }
%struct.anon.36 = type { i32, i32, ptr, ptr }
%struct.ConsAltNode = type { i32, i32, ptr, ptr, ptr }
%struct.anon.38 = type { i32, i32, i32, i32 }
%struct.QuantNode = type { i32, i32, ptr, ptr, i32, i32, i32, i32, ptr, ptr, i32, i32 }
%struct.AnchorNode = type { i32, i32, ptr, ptr, i32, i32, i32, i32, ptr }

; Function Attrs: nounwind uwtable
define internal void @tune_called_state(ptr noundef %0, i32 noundef %1) #0 {
  %3 = alloca ptr, align 8
  %4 = alloca i32, align 4
  %5 = alloca ptr, align 8
  %6 = alloca ptr, align 8
  %7 = alloca ptr, align 8
  store ptr %0, ptr %3, align 8, !tbaa !47
  store i32 %1, ptr %4, align 4, !tbaa !4
  %8 = load ptr, ptr %3, align 8, !tbaa !47
  %9 = getelementptr inbounds nuw %struct._Node, ptr %8, i32 0, i32 0
  %10 = getelementptr inbounds nuw %struct.anon.36, ptr %9, i32 0, i32 0
  %11 = load i32, ptr %10, align 8, !tbaa !32
  switch i32 %11, label %177 [
    i32 8, label %12
    i32 7, label %15
    i32 9, label %29
    i32 5, label %52
    i32 4, label %113
    i32 6, label %154
    i32 3, label %176
    i32 0, label %176
    i32 2, label %176
    i32 1, label %176
    i32 10, label %176
  ]

12:                                               ; preds = %2
  %13 = load i32, ptr %4, align 4, !tbaa !4
  %14 = or i32 %13, 1
  store i32 %14, ptr %4, align 4, !tbaa !4
  br label %15

15:                                               ; preds = %2, %12
  br label %16

16:                                               ; preds = %22, %15
  %17 = load ptr, ptr %3, align 8, !tbaa !47
  %18 = getelementptr inbounds nuw %struct._Node, ptr %17, i32 0, i32 0
  %19 = getelementptr inbounds nuw %struct.ConsAltNode, ptr %18, i32 0, i32 3
  %20 = load ptr, ptr %19, align 8, !tbaa !32
  %21 = load i32, ptr %4, align 4, !tbaa !4
  call void @tune_called_state(ptr noundef %20, i32 noundef %21)
  br label %22

22:                                               ; preds = %16
  %23 = load ptr, ptr %3, align 8, !tbaa !47
  %24 = getelementptr inbounds nuw %struct._Node, ptr %23, i32 0, i32 0
  %25 = getelementptr inbounds nuw %struct.ConsAltNode, ptr %24, i32 0, i32 4
  %26 = load ptr, ptr %25, align 8, !tbaa !32
  store ptr %26, ptr %3, align 8, !tbaa !47
  %27 = icmp ne ptr %26, null
  br i1 %27, label %16, label %28, !llvm.loop !188

28:                                               ; preds = %22
  br label %178

29:                                               ; preds = %2
  %30 = load i32, ptr %4, align 4, !tbaa !4
  %31 = and i32 %30, 256
  %32 = icmp ne i32 %31, 0
  br i1 %32, label %33, label %39

33:                                               ; preds = %29
  %34 = load ptr, ptr %3, align 8, !tbaa !47
  %35 = getelementptr inbounds nuw %struct._Node, ptr %34, i32 0, i32 0
  %36 = getelementptr inbounds nuw %struct.anon.36, ptr %35, i32 0, i32 1
  %37 = load i32, ptr %36, align 4, !tbaa !32
  %38 = or i32 %37, 134217728
  store i32 %38, ptr %36, align 4, !tbaa !32
  br label %39

39:                                               ; preds = %33, %29
  %40 = load i32, ptr %4, align 4, !tbaa !4
  %41 = and i32 %40, 4
  %42 = icmp ne i32 %41, 0
  br i1 %42, label %43, label %49

43:                                               ; preds = %39
  %44 = load ptr, ptr %3, align 8, !tbaa !47
  %45 = getelementptr inbounds nuw %struct._Node, ptr %44, i32 0, i32 0
  %46 = getelementptr inbounds nuw %struct.anon.36, ptr %45, i32 0, i32 1
  %47 = load i32, ptr %46, align 4, !tbaa !32
  %48 = or i32 %47, 1024
  store i32 %48, ptr %46, align 4, !tbaa !32
  br label %49

49:                                               ; preds = %43, %39
  %50 = load ptr, ptr %3, align 8, !tbaa !47
  %51 = load i32, ptr %4, align 4, !tbaa !4
  call void @tune_called_state_call(ptr noundef %50, i32 noundef %51)
  br label %178

52:                                               ; preds = %2
  call void @llvm.lifetime.start.p0(i64 8, ptr %5) #9
  %53 = load ptr, ptr %3, align 8, !tbaa !47
  %54 = getelementptr inbounds nuw %struct._Node, ptr %53, i32 0, i32 0
  store ptr %54, ptr %5, align 8, !tbaa !15
  %55 = load ptr, ptr %5, align 8, !tbaa !15
  %56 = getelementptr inbounds nuw %struct.BagNode, ptr %55, i32 0, i32 4
  %57 = load i32, ptr %56, align 8, !tbaa !156
  switch i32 %57, label %112 [
    i32 0, label %58
    i32 1, label %74
    i32 2, label %74
    i32 3, label %80
  ]

58:                                               ; preds = %52
  %59 = load ptr, ptr %5, align 8, !tbaa !15
  %60 = getelementptr inbounds nuw %struct.BagNode, ptr %59, i32 0, i32 5
  %61 = getelementptr inbounds nuw %struct.anon.38, ptr %60, i32 0, i32 2
  %62 = load i32, ptr %61, align 8, !tbaa !32
  %63 = icmp sgt i32 %62, 1
  br i1 %63, label %64, label %67

64:                                               ; preds = %58
  %65 = load i32, ptr %4, align 4, !tbaa !4
  %66 = or i32 %65, 32
  store i32 %66, ptr %4, align 4, !tbaa !4
  br label %67

67:                                               ; preds = %64, %58
  %68 = load i32, ptr %4, align 4, !tbaa !4
  %69 = load ptr, ptr %5, align 8, !tbaa !15
  %70 = getelementptr inbounds nuw %struct.BagNode, ptr %69, i32 0, i32 5
  %71 = getelementptr inbounds nuw %struct.anon.38, ptr %70, i32 0, i32 3
  %72 = load i32, ptr %71, align 4, !tbaa !32
  %73 = or i32 %72, %68
  store i32 %73, ptr %71, align 4, !tbaa !32
  br label %74

74:                                               ; preds = %52, %52, %67
  %75 = load ptr, ptr %3, align 8, !tbaa !47
  %76 = getelementptr inbounds nuw %struct._Node, ptr %75, i32 0, i32 0
  %77 = getelementptr inbounds nuw %struct.anon.36, ptr %76, i32 0, i32 3
  %78 = load ptr, ptr %77, align 8, !tbaa !32
  %79 = load i32, ptr %4, align 4, !tbaa !4
  call void @tune_called_state(ptr noundef %78, i32 noundef %79)
  br label %112

80:                                               ; preds = %52
  %81 = load i32, ptr %4, align 4, !tbaa !4
  %82 = or i32 %81, 1
  store i32 %82, ptr %4, align 4, !tbaa !4
  %83 = load ptr, ptr %3, align 8, !tbaa !47
  %84 = getelementptr inbounds nuw %struct._Node, ptr %83, i32 0, i32 0
  %85 = getelementptr inbounds nuw %struct.anon.36, ptr %84, i32 0, i32 3
  %86 = load ptr, ptr %85, align 8, !tbaa !32
  %87 = load i32, ptr %4, align 4, !tbaa !4
  call void @tune_called_state(ptr noundef %86, i32 noundef %87)
  %88 = load ptr, ptr %5, align 8, !tbaa !15
  %89 = getelementptr inbounds nuw %struct.BagNode, ptr %88, i32 0, i32 5
  %90 = getelementptr inbounds nuw %struct.anon.40, ptr %89, i32 0, i32 0
  %91 = load ptr, ptr %90, align 8, !tbaa !32
  %92 = icmp ne ptr %91, null
  br i1 %92, label %93, label %99

93:                                               ; preds = %80
  %94 = load ptr, ptr %5, align 8, !tbaa !15
  %95 = getelementptr inbounds nuw %struct.BagNode, ptr %94, i32 0, i32 5
  %96 = getelementptr inbounds nuw %struct.anon.40, ptr %95, i32 0, i32 0
  %97 = load ptr, ptr %96, align 8, !tbaa !32
  %98 = load i32, ptr %4, align 4, !tbaa !4
  call void @tune_called_state(ptr noundef %97, i32 noundef %98)
  br label %99

99:                                               ; preds = %93, %80
  %100 = load ptr, ptr %5, align 8, !tbaa !15
  %101 = getelementptr inbounds nuw %struct.BagNode, ptr %100, i32 0, i32 5
  %102 = getelementptr inbounds nuw %struct.anon.40, ptr %101, i32 0, i32 1
  %103 = load ptr, ptr %102, align 8, !tbaa !32
  %104 = icmp ne ptr %103, null
  br i1 %104, label %105, label %111

105:                                              ; preds = %99
  %106 = load ptr, ptr %5, align 8, !tbaa !15
  %107 = getelementptr inbounds nuw %struct.BagNode, ptr %106, i32 0, i32 5
  %108 = getelementptr inbounds nuw %struct.anon.40, ptr %107, i32 0, i32 1
  %109 = load ptr, ptr %108, align 8, !tbaa !32
  %110 = load i32, ptr %4, align 4, !tbaa !4
  call void @tune_called_state(ptr noundef %109, i32 noundef %110)
  br label %111

111:                                              ; preds = %105, %99
  br label %112

112:                                              ; preds = %52, %111, %74
  call void @llvm.lifetime.end.p0(i64 8, ptr %5) #9
  br label %178

113:                                              ; preds = %2
  call void @llvm.lifetime.start.p0(i64 8, ptr %6) #9
  %114 = load ptr, ptr %3, align 8, !tbaa !47
  %115 = getelementptr inbounds nuw %struct._Node, ptr %114, i32 0, i32 0
  store ptr %115, ptr %6, align 8, !tbaa !15
  %116 = load ptr, ptr %6, align 8, !tbaa !15
  %117 = getelementptr inbounds nuw %struct.QuantNode, ptr %116, i32 0, i32 5
  %118 = load i32, ptr %117, align 4, !tbaa !154
  %119 = icmp eq i32 %118, -1
  br i1 %119, label %125, label %120

120:                                              ; preds = %113
  %121 = load ptr, ptr %6, align 8, !tbaa !15
  %122 = getelementptr inbounds nuw %struct.QuantNode, ptr %121, i32 0, i32 5
  %123 = load i32, ptr %122, align 4, !tbaa !154
  %124 = icmp sge i32 %123, 2
  br i1 %124, label %125, label %128

125:                                              ; preds = %120, %113
  %126 = load i32, ptr %4, align 4, !tbaa !4
  %127 = or i32 %126, 4
  store i32 %127, ptr %4, align 4, !tbaa !4
  br label %128

128:                                              ; preds = %125, %120
  %129 = load ptr, ptr %6, align 8, !tbaa !15
  %130 = getelementptr inbounds nuw %struct.QuantNode, ptr %129, i32 0, i32 4
  %131 = load i32, ptr %130, align 8, !tbaa !189
  %132 = load ptr, ptr %6, align 8, !tbaa !15
  %133 = getelementptr inbounds nuw %struct.QuantNode, ptr %132, i32 0, i32 5
  %134 = load i32, ptr %133, align 4, !tbaa !154
  %135 = icmp ne i32 %131, %134
  br i1 %135, label %136, label %139

136:                                              ; preds = %128
  %137 = load i32, ptr %4, align 4, !tbaa !4
  %138 = or i32 %137, 8
  store i32 %138, ptr %4, align 4, !tbaa !4
  br label %139

139:                                              ; preds = %136, %128
  %140 = load i32, ptr %4, align 4, !tbaa !4
  %141 = and i32 %140, 256
  %142 = icmp ne i32 %141, 0
  br i1 %142, label %143, label %149

143:                                              ; preds = %139
  %144 = load ptr, ptr %3, align 8, !tbaa !47
  %145 = getelementptr inbounds nuw %struct._Node, ptr %144, i32 0, i32 0
  %146 = getelementptr inbounds nuw %struct.anon.36, ptr %145, i32 0, i32 1
  %147 = load i32, ptr %146, align 4, !tbaa !32
  %148 = or i32 %147, 134217728
  store i32 %148, ptr %146, align 4, !tbaa !32
  br label %149

149:                                              ; preds = %143, %139
  %150 = load ptr, ptr %6, align 8, !tbaa !15
  %151 = getelementptr inbounds nuw %struct.QuantNode, ptr %150, i32 0, i32 3
  %152 = load ptr, ptr %151, align 8, !tbaa !190
  %153 = load i32, ptr %4, align 4, !tbaa !4
  call void @tune_called_state(ptr noundef %152, i32 noundef %153)
  call void @llvm.lifetime.end.p0(i64 8, ptr %6) #9
  br label %178

154:                                              ; preds = %2
  call void @llvm.lifetime.start.p0(i64 8, ptr %7) #9
  %155 = load ptr, ptr %3, align 8, !tbaa !47
  %156 = getelementptr inbounds nuw %struct._Node, ptr %155, i32 0, i32 0
  store ptr %156, ptr %7, align 8, !tbaa !15
  %157 = load ptr, ptr %7, align 8, !tbaa !15
  %158 = getelementptr inbounds nuw %struct.AnchorNode, ptr %157, i32 0, i32 4
  %159 = load i32, ptr %158, align 8, !tbaa !184
  switch i32 %159, label %174 [
    i32 2, label %160
    i32 8, label %160
    i32 1, label %167
    i32 4, label %167
  ]

160:                                              ; preds = %154, %154
  %161 = load i32, ptr %4, align 4, !tbaa !4
  %162 = or i32 %161, 258
  store i32 %162, ptr %4, align 4, !tbaa !4
  %163 = load ptr, ptr %7, align 8, !tbaa !15
  %164 = getelementptr inbounds nuw %struct.AnchorNode, ptr %163, i32 0, i32 3
  %165 = load ptr, ptr %164, align 8, !tbaa !186
  %166 = load i32, ptr %4, align 4, !tbaa !4
  call void @tune_called_state(ptr noundef %165, i32 noundef %166)
  br label %175

167:                                              ; preds = %154, %154
  %168 = load i32, ptr %4, align 4, !tbaa !4
  %169 = or i32 %168, 256
  store i32 %169, ptr %4, align 4, !tbaa !4
  %170 = load ptr, ptr %7, align 8, !tbaa !15
  %171 = getelementptr inbounds nuw %struct.AnchorNode, ptr %170, i32 0, i32 3
  %172 = load ptr, ptr %171, align 8, !tbaa !186
  %173 = load i32, ptr %4, align 4, !tbaa !4
  call void @tune_called_state(ptr noundef %172, i32 noundef %173)
  br label %175

174:                                              ; preds = %154
  br label %175

175:                                              ; preds = %174, %167, %160
  call void @llvm.lifetime.end.p0(i64 8, ptr %7) #9
  br label %178

176:                                              ; preds = %2, %2, %2, %2, %2
  br label %177

177:                                              ; preds = %2, %176
  br label %178

178:                                              ; preds = %177, %175, %149, %112, %49, %28
  ret void
}