; Function Attrs: nofree nosync nounwind memory(readwrite, inaccessiblemem: none) uwtable
define internal fastcc void @tune_called_state(ptr noundef captures(none) %0, i32 noundef range(i32 0, 512) %1) unnamed_addr #15 {
  br label %tailrecurse

tailrecurse:                                      ; preds = %tailrecurse.backedge, %2
  %.tr = phi ptr [ %0, %2 ], [ %.tr.be, %tailrecurse.backedge ]
  %.tr56 = phi i32 [ %1, %2 ], [ %.tr56.be, %tailrecurse.backedge ]
  %3 = load i32, ptr %.tr, align 8, !tbaa !20
  switch i32 %3, label %.loopexit [
    i32 8, label %4
    i32 7, label %.loopexit58
    i32 9, label %11
    i32 5, label %23
    i32 4, label %46
    i32 6, label %59
  ]

4:                                                ; preds = %tailrecurse
  %5 = or i32 %.tr56, 1
  br label %.loopexit58

.loopexit58:                                      ; preds = %tailrecurse, %4
  %.046 = phi i32 [ %5, %4 ], [ %.tr56, %tailrecurse ]
  br label %6

6:                                                ; preds = %6, %.loopexit58
  %.0 = phi ptr [ %.tr, %.loopexit58 ], [ %10, %6 ]
  %7 = getelementptr inbounds nuw i8, ptr %.0, i64 16
  %8 = load ptr, ptr %7, align 8, !tbaa !20
  tail call fastcc void @tune_called_state(ptr noundef %8, i32 noundef %.046)
  %9 = getelementptr inbounds nuw i8, ptr %.0, i64 24
  %10 = load ptr, ptr %9, align 8, !tbaa !20
  %.not55 = icmp eq ptr %10, null
  br i1 %.not55, label %.loopexit, label %6, !llvm.loop !219

11:                                               ; preds = %tailrecurse
  %.not53 = icmp samesign ult i32 %.tr56, 256
  br i1 %.not53, label %16, label %12

12:                                               ; preds = %11
  %13 = getelementptr inbounds nuw i8, ptr %.tr, i64 4
  %14 = load i32, ptr %13, align 4, !tbaa !20
  %15 = or i32 %14, 134217728
  store i32 %15, ptr %13, align 4, !tbaa !20
  br label %16

16:                                               ; preds = %12, %11
  %17 = and i32 %.tr56, 4
  %.not54 = icmp eq i32 %17, 0
  br i1 %.not54, label %22, label %18

18:                                               ; preds = %16
  %19 = getelementptr inbounds nuw i8, ptr %.tr, i64 4
  %20 = load i32, ptr %19, align 4, !tbaa !20
  %21 = or i32 %20, 1024
  store i32 %21, ptr %19, align 4, !tbaa !20
  br label %22

22:                                               ; preds = %18, %16
  tail call fastcc void @tune_called_state_call(ptr noundef nonnull %.tr, i32 noundef %.tr56)
  br label %.loopexit

23:                                               ; preds = %tailrecurse
  %24 = getelementptr inbounds nuw i8, ptr %.tr, i64 24
  %25 = load i32, ptr %24, align 8, !tbaa !98
  switch i32 %25, label %.loopexit [
    i32 0, label %26
    i32 1, label %tailrecurse.backedge.sink.split
    i32 2, label %tailrecurse.backedge.sink.split
    i32 3, label %36
  ]

26:                                               ; preds = %23
  %27 = getelementptr inbounds nuw i8, ptr %.tr, i64 40
  %28 = load i32, ptr %27, align 8, !tbaa !20
  %29 = icmp sgt i32 %28, 1
  %30 = or i32 %.tr56, 32
  %spec.select = select i1 %29, i32 %30, i32 %.tr56
  %31 = getelementptr inbounds nuw i8, ptr %.tr, i64 44
  %32 = load i32, ptr %31, align 4, !tbaa !20
  %33 = or i32 %spec.select, %32
  store i32 %33, ptr %31, align 4, !tbaa !20
  br label %tailrecurse.backedge.sink.split

tailrecurse.backedge.sink.split:                  ; preds = %23, %23, %26, %46, %55, %64, %62
  %.tr56.be.ph = phi i32 [ %65, %64 ], [ %63, %62 ], [ %.4, %55 ], [ %.4, %46 ], [ %.tr56, %23 ], [ %.tr56, %23 ], [ %spec.select, %26 ]
  %34 = getelementptr inbounds nuw i8, ptr %.tr, i64 16
  %35 = load ptr, ptr %34, align 8, !tbaa !20
  br label %tailrecurse.backedge

tailrecurse.backedge:                             ; preds = %tailrecurse.backedge.sink.split, %43
  %.tr.be = phi ptr [ %45, %43 ], [ %35, %tailrecurse.backedge.sink.split ]
  %.tr56.be = phi i32 [ %37, %43 ], [ %.tr56.be.ph, %tailrecurse.backedge.sink.split ]
  br label %tailrecurse

36:                                               ; preds = %23
  %37 = or i32 %.tr56, 1
  %38 = getelementptr inbounds nuw i8, ptr %.tr, i64 16
  %39 = load ptr, ptr %38, align 8, !tbaa !20
  tail call fastcc void @tune_called_state(ptr noundef %39, i32 noundef %37)
  %40 = getelementptr inbounds nuw i8, ptr %.tr, i64 32
  %41 = load ptr, ptr %40, align 8, !tbaa !20
  %.not51 = icmp eq ptr %41, null
  br i1 %.not51, label %43, label %42

42:                                               ; preds = %36
  tail call fastcc void @tune_called_state(ptr noundef nonnull %41, i32 noundef %37)
  br label %43

43:                                               ; preds = %42, %36
  %44 = getelementptr inbounds nuw i8, ptr %.tr, i64 40
  %45 = load ptr, ptr %44, align 8, !tbaa !20
  %.not52 = icmp eq ptr %45, null
  br i1 %.not52, label %.loopexit, label %tailrecurse.backedge

46:                                               ; preds = %tailrecurse
  %47 = getelementptr inbounds nuw i8, ptr %.tr, i64 28
  %48 = load i32, ptr %47, align 4, !tbaa !138
  %49 = icmp eq i32 %48, -1
  %50 = icmp sgt i32 %48, 1
  %or.cond = or i1 %49, %50
  %51 = or i32 %.tr56, 4
  %.3 = select i1 %or.cond, i32 %51, i32 %.tr56
  %52 = getelementptr inbounds nuw i8, ptr %.tr, i64 24
  %53 = load i32, ptr %52, align 8, !tbaa !143
  %.not = icmp eq i32 %53, %48
  %54 = or i32 %.3, 8
  %.4 = select i1 %.not, i32 %.3, i32 %54
  %.not50 = icmp samesign ult i32 %.4, 256
  br i1 %.not50, label %tailrecurse.backedge.sink.split, label %55

55:                                               ; preds = %46
  %56 = getelementptr inbounds nuw i8, ptr %.tr, i64 4
  %57 = load i32, ptr %56, align 4, !tbaa !20
  %58 = or i32 %57, 134217728
  store i32 %58, ptr %56, align 4, !tbaa !20
  br label %tailrecurse.backedge.sink.split

59:                                               ; preds = %tailrecurse
  %60 = getelementptr inbounds nuw i8, ptr %.tr, i64 24
  %61 = load i32, ptr %60, align 8, !tbaa !155
  switch i32 %61, label %.loopexit [
    i32 2, label %62
    i32 8, label %62
    i32 1, label %64
    i32 4, label %64
  ]

62:                                               ; preds = %59, %59
  %63 = or i32 %.tr56, 258
  br label %tailrecurse.backedge.sink.split

64:                                               ; preds = %59, %59
  %65 = or i32 %.tr56, 256
  br label %tailrecurse.backedge.sink.split

.loopexit:                                        ; preds = %59, %23, %43, %tailrecurse, %6, %22
  ret void
}